target datalayout = "e-m:e-p270:32:32-p271:32:32-p272:64:64-i64:64-i128:128-f80:128-n8:16:32:64-S128"
target triple = "x86_64-pc-linux-gnu"

%struct.ossl_ml_kem_key_st = type { ptr, ptr, ptr, ptr, ptr, ptr, ptr, ptr, ptr, ptr, ptr, ptr, ptr, i32, i32, [64 x i8], ptr }
%struct.ML_KEM_VINFO = type { ptr, i64, i64, i64, i64, i64, i64, i64, i32, i32, i32, i32, i32, i32 }
%struct.ossl_param_st = type { ptr, i32, ptr, i64, i64 }

@__const.ml_kem_get_params.pubparams = private unnamed_addr constant [2 x ptr] [ptr @.str.2, ptr @.str.3], align 16
@.str.4 = private unnamed_addr constant [5 x i8] c"bits\00", align 1
@.str.5 = private unnamed_addr constant [14 x i8] c"security-bits\00", align 1
@.str.6 = private unnamed_addr constant [9 x i8] c"max-size\00", align 1
@.str.7 = private unnamed_addr constant [5 x i8] c"priv\00", align 1
@.str.8 = private unnamed_addr constant [5 x i8] c"seed\00", align 1

; Function Attrs: nounwind uwtable
define internal i32 @ml_kem_get_params(ptr noundef %0, ptr noundef %1) #0 {
  %3 = alloca i32, align 4
  %4 = alloca ptr, align 8
  %5 = alloca ptr, align 8
  %6 = alloca ptr, align 8
  %7 = alloca ptr, align 8
  %8 = alloca ptr, align 8
  %9 = alloca [2 x ptr], align 16
  %10 = alloca i32, align 4
  %11 = alloca i32, align 4
  %12 = alloca ptr, align 8
  store ptr %0, ptr %4, align 8, !tbaa !3
  store ptr %1, ptr %5, align 8, !tbaa !7
  call void @llvm.lifetime.start.p0(i64 8, ptr %6) #7
  %13 = load ptr, ptr %4, align 8, !tbaa !3
  store ptr %13, ptr %6, align 8, !tbaa !9
  call void @llvm.lifetime.start.p0(i64 8, ptr %7) #7
  %14 = load ptr, ptr %6, align 8, !tbaa !9
  %15 = getelementptr inbounds nuw %struct.ossl_ml_kem_key_st, ptr %14, i32 0, i32 0
  %16 = load ptr, ptr %15, align 8, !tbaa !11
  store ptr %16, ptr %7, align 8, !tbaa !3
  call void @llvm.lifetime.start.p0(i64 8, ptr %8) #7
  call void @llvm.lifetime.start.p0(i64 16, ptr %9) #7
  call void @llvm.memcpy.p0.p0.i64(ptr align 16 %9, ptr align 16 @__const.ml_kem_get_params.pubparams, i64 16, i1 false)
  call void @llvm.lifetime.start.p0(i64 4, ptr %10) #7
  %17 = load ptr, ptr %5, align 8, !tbaa !7
  %18 = call ptr @OSSL_PARAM_locate(ptr noundef %17, ptr noundef @.str.4)
  store ptr %18, ptr %8, align 8, !tbaa !7
  %19 = load ptr, ptr %8, align 8, !tbaa !7
  %20 = icmp ne ptr %19, null
  br i1 %20, label %21, label %30

21:                                               ; preds = %2
  %22 = load ptr, ptr %8, align 8, !tbaa !7
  %23 = load ptr, ptr %7, align 8, !tbaa !3
  %24 = getelementptr inbounds nuw %struct.ML_KEM_VINFO, ptr %23, i32 0, i32 9
  %25 = load i32, ptr %24, align 4, !tbaa !18
  %26 = call i32 @OSSL_PARAM_set_int(ptr noundef %22, i32 noundef %25)
  %27 = icmp ne i32 %26, 0
  br i1 %27, label %29, label %28

28:                                               ; preds = %21
  store i32 0, ptr %3, align 4
  store i32 1, ptr %11, align 4
  br label %231

29:                                               ; preds = %21
  br label %30

30:                                               ; preds = %29, %2
  %31 = load ptr, ptr %5, align 8, !tbaa !7
  %32 = call ptr @OSSL_PARAM_locate(ptr noundef %31, ptr noundef @.str.5)
  store ptr %32, ptr %8, align 8, !tbaa !7
  %33 = load ptr, ptr %8, align 8, !tbaa !7
  %34 = icmp ne ptr %33, null
  br i1 %34, label %35, label %44

35:                                               ; preds = %30
  %36 = load ptr, ptr %8, align 8, !tbaa !7
  %37 = load ptr, ptr %7, align 8, !tbaa !3
  %38 = getelementptr inbounds nuw %struct.ML_KEM_VINFO, ptr %37, i32 0, i32 13
  %39 = load i32, ptr %38, align 4, !tbaa !21
  %40 = call i32 @OSSL_PARAM_set_int(ptr noundef %36, i32 noundef %39)
  %41 = icmp ne i32 %40, 0
  br i1 %41, label %43, label %42

42:                                               ; preds = %35
  store i32 0, ptr %3, align 4
  store i32 1, ptr %11, align 4
  br label %231

43:                                               ; preds = %35
  br label %44

44:                                               ; preds = %43, %30
  %45 = load ptr, ptr %5, align 8, !tbaa !7
  %46 = call ptr @OSSL_PARAM_locate(ptr noundef %45, ptr noundef @.str.6)
  store ptr %46, ptr %8, align 8, !tbaa !7
  %47 = load ptr, ptr %8, align 8, !tbaa !7
  %48 = icmp ne ptr %47, null
  br i1 %48, label %49, label %59

49:                                               ; preds = %44
  %50 = load ptr, ptr %8, align 8, !tbaa !7
  %51 = load ptr, ptr %7, align 8, !tbaa !3
  %52 = getelementptr inbounds nuw %struct.ML_KEM_VINFO, ptr %51, i32 0, i32 5
  %53 = load i64, ptr %52, align 8, !tbaa !22
  %54 = trunc i64 %53 to i32
  %55 = call i32 @OSSL_PARAM_set_int(ptr noundef %50, i32 noundef %54)
  %56 = icmp ne i32 %55, 0
  br i1 %56, label %58, label %57

57:                                               ; preds = %49
  store i32 0, ptr %3, align 4
  store i32 1, ptr %11, align 4
  br label %231

58:                                               ; preds = %49
  br label %59

59:                                               ; preds = %58, %44
  %60 = load ptr, ptr %6, align 8, !tbaa !9
  %61 = getelementptr inbounds nuw %struct.ossl_ml_kem_key_st, ptr %60, i32 0, i32 8
  %62 = load ptr, ptr %61, align 8, !tbaa !23
  %63 = icmp ne ptr %62, null
  br i1 %63, label %64, label %137

64:                                               ; preds = %59
  call void @llvm.lifetime.start.p0(i64 8, ptr %12) #7
  store ptr null, ptr %12, align 8, !tbaa !24
  store i32 0, ptr %10, align 4, !tbaa !25
  br label %65

65:                                               ; preds = %130, %64
  %66 = load i32, ptr %10, align 4, !tbaa !25
  %67 = icmp slt i32 %66, 2
  br i1 %67, label %68, label %133

68:                                               ; preds = %65
  %69 = load ptr, ptr %5, align 8, !tbaa !7
  %70 = load i32, ptr %10, align 4, !tbaa !25
  %71 = sext i32 %70 to i64
  %72 = getelementptr inbounds [2 x ptr], ptr %9, i64 0, i64 %71
  %73 = load ptr, ptr %72, align 8, !tbaa !24
  %74 = call ptr @OSSL_PARAM_locate(ptr noundef %69, ptr noundef %73)
  store ptr %74, ptr %8, align 8, !tbaa !7
  %75 = load ptr, ptr %8, align 8, !tbaa !7
  %76 = icmp eq ptr %75, null
  br i1 %76, label %77, label %78

77:                                               ; preds = %68
  br label %130

78:                                               ; preds = %68
  %79 = load ptr, ptr %8, align 8, !tbaa !7
  %80 = getelementptr inbounds nuw %struct.ossl_param_st, ptr %79, i32 0, i32 1
  %81 = load i32, ptr %80, align 8, !tbaa !26
  %82 = icmp ne i32 %81, 5
  br i1 %82, label %83, label %84

83:                                               ; preds = %78
  store i32 0, ptr %3, align 4
  store i32 1, ptr %11, align 4
  br label %134

84:                                               ; preds = %78
  %85 = load ptr, ptr %7, align 8, !tbaa !3
  %86 = getelementptr inbounds nuw %struct.ML_KEM_VINFO, ptr %85, i32 0, i32 3
  %87 = load i64, ptr %86, align 8, !tbaa !28
  %88 = load ptr, ptr %8, align 8, !tbaa !7
  %89 = getelementptr inbounds nuw %struct.ossl_param_st, ptr %88, i32 0, i32 4
  store i64 %87, ptr %89, align 8, !tbaa !29
  %90 = load ptr, ptr %8, align 8, !tbaa !7
  %91 = getelementptr inbounds nuw %struct.ossl_param_st, ptr %90, i32 0, i32 2
  %92 = load ptr, ptr %91, align 8, !tbaa !30
  %93 = icmp eq ptr %92, null
  br i1 %93, label %94, label %95

94:                                               ; preds = %84
  br label %130

95:                                               ; preds = %84
  %96 = load ptr, ptr %8, align 8, !tbaa !7
  %97 = getelementptr inbounds nuw %struct.ossl_param_st, ptr %96, i32 0, i32 3
  %98 = load i64, ptr %97, align 8, !tbaa !31
  %99 = load ptr, ptr %8, align 8, !tbaa !7
  %100 = getelementptr inbounds nuw %struct.ossl_param_st, ptr %99, i32 0, i32 4
  %101 = load i64, ptr %100, align 8, !tbaa !29
  %102 = icmp ult i64 %98, %101
  br i1 %102, label %103, label %104

103:                                              ; preds = %95
  store i32 0, ptr %3, align 4
  store i32 1, ptr %11, align 4
  br label %134

104:                                              ; preds = %95
  %105 = load ptr, ptr %12, align 8, !tbaa !24
  %106 = icmp ne ptr %105, null
  br i1 %106, label %107, label %115

107:                                              ; preds = %104
  %108 = load ptr, ptr %8, align 8, !tbaa !7
  %109 = getelementptr inbounds nuw %struct.ossl_param_st, ptr %108, i32 0, i32 2
  %110 = load ptr, ptr %109, align 8, !tbaa !30
  %111 = load ptr, ptr %12, align 8, !tbaa !24
  %112 = load ptr, ptr %8, align 8, !tbaa !7
  %113 = getelementptr inbounds nuw %struct.ossl_param_st, ptr %112, i32 0, i32 4
  %114 = load i64, ptr %113, align 8, !tbaa !29
  call void @llvm.memcpy.p0.p0.i64(ptr align 1 %110, ptr align 1 %111, i64 %114, i1 false)
  br label %130

115:                                              ; preds = %104
  %116 = load ptr, ptr %8, align 8, !tbaa !7
  %117 = getelementptr inbounds nuw %struct.ossl_param_st, ptr %116, i32 0, i32 2
  %118 = load ptr, ptr %117, align 8, !tbaa !30
  %119 = load ptr, ptr %8, align 8, !tbaa !7
  %120 = getelementptr inbounds nuw %struct.ossl_param_st, ptr %119, i32 0, i32 4
  %121 = load i64, ptr %120, align 8, !tbaa !29
  %122 = load ptr, ptr %6, align 8, !tbaa !9
  %123 = call i32 @ossl_ml_kem_encode_public_key(ptr noundef %118, i64 noundef %121, ptr noundef %122)
  %124 = icmp ne i32 %123, 0
  br i1 %124, label %126, label %125

125:                                              ; preds = %115
  store i32 0, ptr %3, align 4
  store i32 1, ptr %11, align 4
  br label %134

126:                                              ; preds = %115
  %127 = load ptr, ptr %8, align 8, !tbaa !7
  %128 = getelementptr inbounds nuw %struct.ossl_param_st, ptr %127, i32 0, i32 2
  %129 = load ptr, ptr %128, align 8, !tbaa !30
  store ptr %129, ptr %12, align 8, !tbaa !24
  br label %130

130:                                              ; preds = %126, %107, %94, %77
  %131 = load i32, ptr %10, align 4, !tbaa !25
  %132 = add nsw i32 %131, 1
  store i32 %132, ptr %10, align 4, !tbaa !25
  br label %65, !llvm.loop !32

133:                                              ; preds = %65
  store i32 0, ptr %11, align 4
  br label %134

134:                                              ; preds = %133, %125, %103, %83
  call void @llvm.lifetime.end.p0(i64 8, ptr %12) #7
  %135 = load i32, ptr %11, align 4
  switch i32 %135, label %231 [
    i32 0, label %136
  ]

136:                                              ; preds = %134
  br label %137

137:                                              ; preds = %136, %59
  %138 = load ptr, ptr %5, align 8, !tbaa !7
  %139 = call ptr @OSSL_PARAM_locate(ptr noundef %138, ptr noundef @.str.7)
  store ptr %139, ptr %8, align 8, !tbaa !7
  %140 = load ptr, ptr %8, align 8, !tbaa !7
  %141 = icmp ne ptr %140, null
  br i1 %141, label %142, label %185

142:                                              ; preds = %137
  %143 = load ptr, ptr %6, align 8, !tbaa !9
  %144 = getelementptr inbounds nuw %struct.ossl_ml_kem_key_st, ptr %143, i32 0, i32 10
  %145 = load ptr, ptr %144, align 8, !tbaa !34
  %146 = icmp ne ptr %145, null
  br i1 %146, label %147, label %185

147:                                              ; preds = %142
  %148 = load ptr, ptr %8, align 8, !tbaa !7
  %149 = getelementptr inbounds nuw %struct.ossl_param_st, ptr %148, i32 0, i32 1
  %150 = load i32, ptr %149, align 8, !tbaa !26
  %151 = icmp ne i32 %150, 5
  br i1 %151, label %152, label %153

152:                                              ; preds = %147
  store i32 0, ptr %3, align 4
  store i32 1, ptr %11, align 4
  br label %231

153:                                              ; preds = %147
  %154 = load ptr, ptr %7, align 8, !tbaa !3
  %155 = getelementptr inbounds nuw %struct.ML_KEM_VINFO, ptr %154, i32 0, i32 1
  %156 = load i64, ptr %155, align 8, !tbaa !35
  %157 = load ptr, ptr %8, align 8, !tbaa !7
  %158 = getelementptr inbounds nuw %struct.ossl_param_st, ptr %157, i32 0, i32 4
  store i64 %156, ptr %158, align 8, !tbaa !29
  %159 = load ptr, ptr %8, align 8, !tbaa !7
  %160 = getelementptr inbounds nuw %struct.ossl_param_st, ptr %159, i32 0, i32 2
  %161 = load ptr, ptr %160, align 8, !tbaa !30
  %162 = icmp ne ptr %161, null
  br i1 %162, label %163, label %184

163:                                              ; preds = %153
  %164 = load ptr, ptr %8, align 8, !tbaa !7
  %165 = getelementptr inbounds nuw %struct.ossl_param_st, ptr %164, i32 0, i32 3
  %166 = load i64, ptr %165, align 8, !tbaa !31
  %167 = load ptr, ptr %8, align 8, !tbaa !7
  %168 = getelementptr inbounds nuw %struct.ossl_param_st, ptr %167, i32 0, i32 4
  %169 = load i64, ptr %168, align 8, !tbaa !29
  %170 = icmp ult i64 %166, %169
  br i1 %170, label %171, label %172

171:                                              ; preds = %163
  store i32 0, ptr %3, align 4
  store i32 1, ptr %11, align 4
  br label %231

172:                                              ; preds = %163
  %173 = load ptr, ptr %8, align 8, !tbaa !7
  %174 = getelementptr inbounds nuw %struct.ossl_param_st, ptr %173, i32 0, i32 2
  %175 = load ptr, ptr %174, align 8, !tbaa !30
  %176 = load ptr, ptr %8, align 8, !tbaa !7
  %177 = getelementptr inbounds nuw %struct.ossl_param_st, ptr %176, i32 0, i32 4
  %178 = load i64, ptr %177, align 8, !tbaa !29
  %179 = load ptr, ptr %6, align 8, !tbaa !9
  %180 = call i32 @ossl_ml_kem_encode_private_key(ptr noundef %175, i64 noundef %178, ptr noundef %179)
  %181 = icmp ne i32 %180, 0
  br i1 %181, label %183, label %182

182:                                              ; preds = %172
  store i32 0, ptr %3, align 4
  store i32 1, ptr %11, align 4
  br label %231

183:                                              ; preds = %172
  br label %184

184:                                              ; preds = %183, %153
  br label %185

185:                                              ; preds = %184, %142, %137
  %186 = load ptr, ptr %5, align 8, !tbaa !7
  %187 = call ptr @OSSL_PARAM_locate(ptr noundef %186, ptr noundef @.str.8)
  store ptr %187, ptr %8, align 8, !tbaa !7
  %188 = load ptr, ptr %8, align 8, !tbaa !7
  %189 = icmp ne ptr %188, null
  br i1 %189, label %190, label %230

190:                                              ; preds = %185
  %191 = load ptr, ptr %6, align 8, !tbaa !9
  %192 = getelementptr inbounds nuw %struct.ossl_ml_kem_key_st, ptr %191, i32 0, i32 12
  %193 = load ptr, ptr %192, align 8, !tbaa !36
  %194 = icmp ne ptr %193, null
  br i1 %194, label %195, label %230

195:                                              ; preds = %190
  %196 = load ptr, ptr %8, align 8, !tbaa !7
  %197 = getelementptr inbounds nuw %struct.ossl_param_st, ptr %196, i32 0, i32 1
  %198 = load i32, ptr %197, align 8, !tbaa !26
  %199 = icmp ne i32 %198, 5
  br i1 %199, label %200, label %201

200:                                              ; preds = %195
  store i32 0, ptr %3, align 4
  store i32 1, ptr %11, align 4
  br label %231

201:                                              ; preds = %195
  %202 = load ptr, ptr %8, align 8, !tbaa !7
  %203 = getelementptr inbounds nuw %struct.ossl_param_st, ptr %202, i32 0, i32 4
  store i64 64, ptr %203, align 8, !tbaa !29
  %204 = load ptr, ptr %8, align 8, !tbaa !7
  %205 = getelementptr inbounds nuw %struct.ossl_param_st, ptr %204, i32 0, i32 2
  %206 = load ptr, ptr %205, align 8, !tbaa !30
  %207 = icmp ne ptr %206, null
  br i1 %207, label %208, label %229

208:                                              ; preds = %201
  %209 = load ptr, ptr %8, align 8, !tbaa !7
  %210 = getelementptr inbounds nuw %struct.ossl_param_st, ptr %209, i32 0, i32 3
  %211 = load i64, ptr %210, align 8, !tbaa !31
  %212 = load ptr, ptr %8, align 8, !tbaa !7
  %213 = getelementptr inbounds nuw %struct.ossl_param_st, ptr %212, i32 0, i32 4
  %214 = load i64, ptr %213, align 8, !tbaa !29
  %215 = icmp ult i64 %211, %214
  br i1 %215, label %216, label %217

216:                                              ; preds = %208
  store i32 0, ptr %3, align 4
  store i32 1, ptr %11, align 4
  br label %231

217:                                              ; preds = %208
  %218 = load ptr, ptr %8, align 8, !tbaa !7
  %219 = getelementptr inbounds nuw %struct.ossl_param_st, ptr %218, i32 0, i32 2
  %220 = load ptr, ptr %219, align 8, !tbaa !30
  %221 = load ptr, ptr %8, align 8, !tbaa !7
  %222 = getelementptr inbounds nuw %struct.ossl_param_st, ptr %221, i32 0, i32 4
  %223 = load i64, ptr %222, align 8, !tbaa !29
  %224 = load ptr, ptr %6, align 8, !tbaa !9
  %225 = call i32 @ossl_ml_kem_encode_seed(ptr noundef %220, i64 noundef %223, ptr noundef %224)
  %226 = icmp ne i32 %225, 0
  br i1 %226, label %228, label %227

227:                                              ; preds = %217
  store i32 0, ptr %3, align 4
  store i32 1, ptr %11, align 4
  br label %231

228:                                              ; preds = %217
  br label %229

229:                                              ; preds = %228, %201
  br label %230

230:                                              ; preds = %229, %190, %185
  store i32 1, ptr %3, align 4
  store i32 1, ptr %11, align 4
  br label %231

231:                                              ; preds = %230, %227, %216, %200, %182, %171, %152, %134, %57, %42, %28
  call void @llvm.lifetime.end.p0(i64 4, ptr %10) #7
  call void @llvm.lifetime.end.p0(i64 16, ptr %9) #7
  call void @llvm.lifetime.end.p0(i64 8, ptr %8) #7
  call void @llvm.lifetime.end.p0(i64 8, ptr %7) #7
  call void @llvm.lifetime.end.p0(i64 8, ptr %6) #7
  %232 = load i32, ptr %3, align 4
  ret i32 %232
}