; Function Attrs: nounwind uwtable
define internal range(i32 0, 2) i32 @ml_kem_get_params(ptr noundef %0, ptr noundef %1) #0 {
  %3 = load ptr, ptr %0, align 8, !tbaa !14
  %4 = tail call ptr @OSSL_PARAM_locate(ptr noundef %1, ptr noundef nonnull @.str.4) #7
  %.not = icmp eq ptr %4, null
  br i1 %.not, label %9, label %5

5:                                                ; preds = %2
  %6 = getelementptr inbounds nuw i8, ptr %3, i64 68
  %7 = load i32, ptr %6, align 4, !tbaa !15
  %8 = tail call i32 @OSSL_PARAM_set_int(ptr noundef nonnull %4, i32 noundef %7) #7
  %.not73 = icmp eq i32 %8, 0
  br i1 %.not73, label %.loopexit, label %9

9:                                                ; preds = %5, %2
  %10 = tail call ptr @OSSL_PARAM_locate(ptr noundef %1, ptr noundef nonnull @.str.5) #7
  %.not74 = icmp eq ptr %10, null
  br i1 %.not74, label %15, label %11

11:                                               ; preds = %9
  %12 = getelementptr inbounds nuw i8, ptr %3, i64 84
  %13 = load i32, ptr %12, align 4, !tbaa !18
  %14 = tail call i32 @OSSL_PARAM_set_int(ptr noundef nonnull %10, i32 noundef %13) #7
  %.not75 = icmp eq i32 %14, 0
  br i1 %.not75, label %.loopexit, label %15

15:                                               ; preds = %11, %9
  %16 = tail call ptr @OSSL_PARAM_locate(ptr noundef %1, ptr noundef nonnull @.str.6) #7
  %.not76 = icmp eq ptr %16, null
  br i1 %.not76, label %22, label %17

17:                                               ; preds = %15
  %18 = getelementptr inbounds nuw i8, ptr %3, i64 40
  %19 = load i64, ptr %18, align 8, !tbaa !19
  %20 = trunc i64 %19 to i32
  %21 = tail call i32 @OSSL_PARAM_set_int(ptr noundef nonnull %16, i32 noundef %20) #7
  %.not77 = icmp eq i32 %21, 0
  br i1 %.not77, label %.loopexit, label %22

22:                                               ; preds = %17, %15
  %23 = getelementptr inbounds nuw i8, ptr %0, i64 64
  %24 = load ptr, ptr %23, align 8, !tbaa !20
  %.not78 = icmp eq ptr %24, null
  br i1 %.not78, label %.critedge, label %.preheader

.preheader:                                       ; preds = %22
  %25 = getelementptr inbounds nuw i8, ptr %3, i64 24
  br label %26

26:                                               ; preds = %.preheader, %50
  %.not94 = phi i1 [ true, %.preheader ], [ false, %50 ]
  %indvars.iv = phi i64 [ 0, %.preheader ], [ 1, %50 ]
  %.093 = phi ptr [ null, %.preheader ], [ %.1, %50 ]
  %27 = getelementptr inbounds nuw [2 x ptr], ptr @__const.ml_kem_get_params.pubparams, i64 0, i64 %indvars.iv
  %28 = load ptr, ptr %27, align 8, !tbaa !21
  %29 = tail call ptr @OSSL_PARAM_locate(ptr noundef %1, ptr noundef %28) #7
  %30 = icmp eq ptr %29, null
  br i1 %30, label %50, label %31

31:                                               ; preds = %26
  %32 = getelementptr inbounds nuw i8, ptr %29, i64 8
  %33 = load i32, ptr %32, align 8, !tbaa !22
  %.not79 = icmp eq i32 %33, 5
  br i1 %.not79, label %34, label %.loopexit

34:                                               ; preds = %31
  %35 = load i64, ptr %25, align 8, !tbaa !24
  %36 = getelementptr inbounds nuw i8, ptr %29, i64 32
  store i64 %35, ptr %36, align 8, !tbaa !25
  %37 = getelementptr inbounds nuw i8, ptr %29, i64 16
  %38 = load ptr, ptr %37, align 8, !tbaa !26
  %39 = icmp eq ptr %38, null
  br i1 %39, label %50, label %40

40:                                               ; preds = %34
  %41 = getelementptr inbounds nuw i8, ptr %29, i64 24
  %42 = load i64, ptr %41, align 8, !tbaa !27
  %43 = icmp ult i64 %42, %35
  br i1 %43, label %.loopexit, label %44

44:                                               ; preds = %40
  %.not80 = icmp eq ptr %.093, null
  br i1 %.not80, label %46, label %45

45:                                               ; preds = %44
  tail call void @llvm.memcpy.p0.p0.i64(ptr nonnull align 1 %38, ptr nonnull align 1 %.093, i64 %35, i1 false)
  br label %50

46:                                               ; preds = %44
  %47 = tail call i32 @ossl_ml_kem_encode_public_key(ptr noundef nonnull %38, i64 noundef %35, ptr noundef nonnull %0) #7
  %.not81 = icmp eq i32 %47, 0
  br i1 %.not81, label %.loopexit, label %48

48:                                               ; preds = %46
  %49 = load ptr, ptr %37, align 8, !tbaa !26
  br label %50

50:                                               ; preds = %34, %26, %48, %45
  %.1 = phi ptr [ %.093, %26 ], [ %.093, %34 ], [ %.093, %45 ], [ %49, %48 ]
  br i1 %.not94, label %26, label %.critedge, !llvm.loop !28

.critedge:                                        ; preds = %50, %22
  %51 = tail call ptr @OSSL_PARAM_locate(ptr noundef %1, ptr noundef nonnull @.str.7) #7
  %.not82 = icmp eq ptr %51, null
  br i1 %.not82, label %70, label %52

52:                                               ; preds = %.critedge
  %53 = getelementptr inbounds nuw i8, ptr %0, i64 80
  %54 = load ptr, ptr %53, align 8, !tbaa !30
  %.not83 = icmp eq ptr %54, null
  br i1 %.not83, label %70, label %55

55:                                               ; preds = %52
  %56 = getelementptr inbounds nuw i8, ptr %51, i64 8
  %57 = load i32, ptr %56, align 8, !tbaa !22
  %.not84 = icmp eq i32 %57, 5
  br i1 %.not84, label %58, label %.loopexit

58:                                               ; preds = %55
  %59 = getelementptr inbounds nuw i8, ptr %3, i64 8
  %60 = load i64, ptr %59, align 8, !tbaa !31
  %61 = getelementptr inbounds nuw i8, ptr %51, i64 32
  store i64 %60, ptr %61, align 8, !tbaa !25
  %62 = getelementptr inbounds nuw i8, ptr %51, i64 16
  %63 = load ptr, ptr %62, align 8, !tbaa !26
  %.not85 = icmp eq ptr %63, null
  br i1 %.not85, label %70, label %64

64:                                               ; preds = %58
  %65 = getelementptr inbounds nuw i8, ptr %51, i64 24
  %66 = load i64, ptr %65, align 8, !tbaa !27
  %67 = icmp ult i64 %66, %60
  br i1 %67, label %.loopexit, label %68

68:                                               ; preds = %64
  %69 = tail call i32 @ossl_ml_kem_encode_private_key(ptr noundef nonnull %63, i64 noundef %60, ptr noundef nonnull %0) #7
  %.not86 = icmp eq i32 %69, 0
  br i1 %.not86, label %.loopexit, label %70

70:                                               ; preds = %58, %68, %52, %.critedge
  %71 = tail call ptr @OSSL_PARAM_locate(ptr noundef %1, ptr noundef nonnull @.str.8) #7
  %.not87 = icmp eq ptr %71, null
  br i1 %.not87, label %88, label %72

72:                                               ; preds = %70
  %73 = getelementptr inbounds nuw i8, ptr %0, i64 96
  %74 = load ptr, ptr %73, align 8, !tbaa !32
  %.not88 = icmp eq ptr %74, null
  br i1 %.not88, label %88, label %75

75:                                               ; preds = %72
  %76 = getelementptr inbounds nuw i8, ptr %71, i64 8
  %77 = load i32, ptr %76, align 8, !tbaa !22
  %.not89 = icmp eq i32 %77, 5
  br i1 %.not89, label %78, label %.loopexit

78:                                               ; preds = %75
  %79 = getelementptr inbounds nuw i8, ptr %71, i64 32
  store i64 64, ptr %79, align 8, !tbaa !25
  %80 = getelementptr inbounds nuw i8, ptr %71, i64 16
  %81 = load ptr, ptr %80, align 8, !tbaa !26
  %.not90 = icmp eq ptr %81, null
  br i1 %.not90, label %88, label %82

82:                                               ; preds = %78
  %83 = getelementptr inbounds nuw i8, ptr %71, i64 24
  %84 = load i64, ptr %83, align 8, !tbaa !27
  %85 = icmp ult i64 %84, 64
  br i1 %85, label %.loopexit, label %86

86:                                               ; preds = %82
  %87 = tail call i32 @ossl_ml_kem_encode_seed(ptr noundef nonnull %81, i64 noundef 64, ptr noundef nonnull %0) #7
  %.not91 = icmp eq i32 %87, 0
  br i1 %.not91, label %.loopexit, label %88

88:                                               ; preds = %78, %86, %72, %70
  br label %.loopexit

.loopexit:                                        ; preds = %31, %40, %46, %86, %82, %75, %68, %64, %55, %17, %11, %5, %88
  %.060 = phi i32 [ 1, %88 ], [ 0, %5 ], [ 0, %11 ], [ 0, %17 ], [ 0, %55 ], [ 0, %64 ], [ 0, %68 ], [ 0, %75 ], [ 0, %82 ], [ 0, %86 ], [ 0, %46 ], [ 0, %40 ], [ 0, %31 ]
  ret i32 %.060
}